; Function Attrs: mustprogress nofree norecurse nosync nounwind willreturn memory(read, inaccessiblemem: none) uwtable
define dso_local noundef signext i8 @_ZNK5clang6format14TokenAnnotator26getTokenReferenceAlignmentERKNS0_11FormatTokenE(ptr noundef nonnull readonly align 8 captures(none) dereferenceable(1000) %0, ptr noundef nonnull readnone align 8 captures(none) dereferenceable(305) %1) local_unnamed_addr #3 align 2 {
  %3 = load ptr, ptr %0, align 8
  %4 = getelementptr inbounds nuw i8, ptr %3, i64 696
  %5 = load i8, ptr %4, align 8
  switch i8 %5, label %11 [
    i8 0, label %6
    i8 1, label %14
    i8 2, label %9
    i8 3, label %10
  ]

6:                                                ; preds = %2
  %7 = getelementptr inbounds nuw i8, ptr %3, i64 632
  %8 = load i8, ptr %7, align 8
  br label %14

9:                                                ; preds = %2
  br label %14

10:                                               ; preds = %2
  br label %14

11:                                               ; preds = %2
  %12 = getelementptr inbounds nuw i8, ptr %3, i64 632
  %13 = load i8, ptr %12, align 8
  br label %14

14:                                               ; preds = %2, %11, %10, %9, %6
  %.0 = phi i8 [ %13, %11 ], [ 2, %10 ], [ 1, %9 ], [ %8, %6 ], [ 0, %2 ]
  ret i8 %.0
}